; Function Attrs: mustprogress uwtable
define hidden void @_ZN2cv10BRISK_ImplC2ERKSt6vectorIfSaIfEERKS1_IiSaIiEEffS7_(ptr noundef nonnull align 8 dereferenceable(96) %0, ptr noundef %1, ptr nocapture noundef nonnull readonly align 8 dereferenceable(24) %2, ptr nocapture noundef nonnull readonly align 8 dereferenceable(24) %3, float noundef %4, float noundef %5, ptr nocapture noundef nonnull readonly %6) unnamed_addr #0 align 2 personality ptr @__gxx_personality_v0 {
  %8 = getelementptr inbounds i8, ptr %1, i64 8
  %9 = getelementptr inbounds i8, ptr %1, i64 16
  %10 = load ptr, ptr %9, align 8
  store ptr %10, ptr %0, align 8
  %11 = getelementptr inbounds i8, ptr %1, i64 24
  %12 = load ptr, ptr %11, align 8
  %13 = getelementptr i8, ptr %10, i64 -80
  %14 = load i64, ptr %13, align 8
  %15 = getelementptr inbounds i8, ptr %0, i64 %14
  store ptr %12, ptr %15, align 8
  %16 = load ptr, ptr %8, align 8
  store ptr %16, ptr %0, align 8
  %17 = getelementptr inbounds i8, ptr %1, i64 32
  %18 = load ptr, ptr %17, align 8
  %19 = getelementptr i8, ptr %16, i64 -80
  %20 = load i64, ptr %19, align 8
  %21 = getelementptr inbounds i8, ptr %0, i64 %20
  store ptr %18, ptr %21, align 8
  %22 = load ptr, ptr %1, align 8
  store ptr %22, ptr %0, align 8
  %23 = getelementptr inbounds i8, ptr %1, i64 40
  %24 = load ptr, ptr %23, align 8
  %25 = getelementptr i8, ptr %22, i64 -80
  %26 = load i64, ptr %25, align 8
  %27 = getelementptr inbounds i8, ptr %0, i64 %26
  store ptr %24, ptr %27, align 8
  invoke void @_ZN2cv10BRISK_Impl14generateKernelERKSt6vectorIfSaIfEERKS1_IiSaIiEEffS9_(ptr noundef nonnull align 8 dereferenceable(96) %0, ptr noundef nonnull align 8 dereferenceable(24) %2, ptr noundef nonnull align 8 dereferenceable(24) %3, float noundef %4, float noundef %5, ptr noundef nonnull align 8 dereferenceable(24) %6)
          to label %28 unwind label %31

28:                                               ; preds = %7
  %29 = getelementptr inbounds i8, ptr %0, i64 8
  store i32 20, ptr %29, align 8
  %30 = getelementptr inbounds i8, ptr %0, i64 12
  store i32 3, ptr %30, align 4
  ret void

31:                                               ; preds = %7
  %32 = landingpad { ptr, i32 }
          cleanup
  tail call void @_ZN2cv9Feature2DD2Ev(ptr noundef nonnull align 8 dereferenceable(8) %0, ptr noundef nonnull %9) #22
  resume { ptr, i32 } %32
}